; Function Attrs: mustprogress nofree norecurse nosync nounwind willreturn memory(read, inaccessiblemem: none) uwtable
define dso_local noundef ptr @_ZN4Luau10Normalizer19intersectionOfBoolsEPKNS_4TypeES3_(ptr noundef nonnull readonly align 8 captures(none) dereferenceable(337) %0, ptr noundef readonly %1, ptr noundef readonly %2) local_unnamed_addr #9 align 2 {
  %.not.i.i = icmp eq ptr %1, null
  br i1 %.not.i.i, label %7, label %4

4:                                                ; preds = %3
  %5 = load i32, ptr %1, align 8, !tbaa !52
  %6 = icmp eq i32 %5, 17
  br i1 %6, label %_ZN4Luau3getINS_9NeverTypeEEEPKT_PKNS_4TypeE.exit, label %.thread

7:                                                ; preds = %3
  %.not.i.i20 = icmp eq ptr %2, null
  br i1 %.not.i.i20, label %_ZN4Luau3getINS_9NeverTypeEEEPKT_PKNS_4TypeE.exit, label %8

.thread:                                          ; preds = %4
  %.not.i.i2043 = icmp eq ptr %2, null
  br i1 %.not.i.i2043, label %.thread47, label %8

8:                                                ; preds = %.thread, %7
  %9 = load i32, ptr %2, align 8, !tbaa !52
  %10 = icmp eq i32 %9, 17
  %brmerge = or i1 %.not.i.i, %10
  br i1 %brmerge, label %_ZN4Luau3getINS_9NeverTypeEEEPKT_PKNS_4TypeE.exit, label %thread-pre-split

thread-pre-split:                                 ; preds = %8
  %.pr = load i32, ptr %1, align 8, !tbaa !52
  br label %.thread47

.thread47:                                        ; preds = %.thread, %thread-pre-split
  %11 = phi i32 [ %.pr, %thread-pre-split ], [ %5, %.thread ]
  %.not.i.i2044 = phi i1 [ false, %thread-pre-split ], [ true, %.thread ]
  %12 = icmp eq i32 %11, 5
  br i1 %12, label %_ZN4Luau6get_ifINS_16BooleanSingletonEJS1_NS_15StringSingletonEEEEPKT_PKNS_7VariantIJDpT0_EEE.exit.i, label %_ZN4Luau3getINS_9NeverTypeEEEPKT_PKNS_4TypeE.exit

_ZN4Luau6get_ifINS_16BooleanSingletonEJS1_NS_15StringSingletonEEEEPKT_PKNS_7VariantIJDpT0_EEE.exit.i: ; preds = %.thread47
  %13 = getelementptr inbounds nuw i8, ptr %1, i64 8
  %14 = load i32, ptr %13, align 8, !tbaa !148
  %15 = icmp ne i32 %14, 0
  %16 = getelementptr inbounds nuw i8, ptr %1, i64 16
  %brmerge42 = or i1 %.not.i.i2044, %15
  %.mux = select i1 %15, ptr %2, ptr %1
  br i1 %brmerge42, label %_ZN4Luau3getINS_9NeverTypeEEEPKT_PKNS_4TypeE.exit, label %17

17:                                               ; preds = %_ZN4Luau6get_ifINS_16BooleanSingletonEJS1_NS_15StringSingletonEEEEPKT_PKNS_7VariantIJDpT0_EEE.exit.i
  %18 = load i32, ptr %2, align 8, !tbaa !52
  %19 = icmp eq i32 %18, 5
  br i1 %19, label %_ZN4Luau6get_ifINS_16BooleanSingletonEJS1_NS_15StringSingletonEEEEPKT_PKNS_7VariantIJDpT0_EEE.exit.i26, label %_ZN4Luau3getINS_9NeverTypeEEEPKT_PKNS_4TypeE.exit

_ZN4Luau6get_ifINS_16BooleanSingletonEJS1_NS_15StringSingletonEEEEPKT_PKNS_7VariantIJDpT0_EEE.exit.i26: ; preds = %17
  %20 = getelementptr inbounds nuw i8, ptr %2, i64 8
  %21 = load i32, ptr %20, align 8, !tbaa !148
  %22 = icmp eq i32 %21, 0
  br i1 %22, label %_ZN4Luau3getINS_16BooleanSingletonEEEPKT_PKNS_13SingletonTypeE.exit28, label %_ZN4Luau3getINS_9NeverTypeEEEPKT_PKNS_4TypeE.exit

_ZN4Luau3getINS_16BooleanSingletonEEEPKT_PKNS_13SingletonTypeE.exit28: ; preds = %_ZN4Luau6get_ifINS_16BooleanSingletonEJS1_NS_15StringSingletonEEEEPKT_PKNS_7VariantIJDpT0_EEE.exit.i26
  %23 = getelementptr inbounds nuw i8, ptr %2, i64 16
  %24 = load i8, ptr %16, align 1, !tbaa !150, !range !34, !noundef !35
  %25 = load i8, ptr %23, align 1, !tbaa !150, !range !34, !noundef !35
  %26 = icmp eq i8 %24, %25
  br i1 %26, label %_ZN4Luau3getINS_9NeverTypeEEEPKT_PKNS_4TypeE.exit, label %27

27:                                               ; preds = %_ZN4Luau3getINS_16BooleanSingletonEEEPKT_PKNS_13SingletonTypeE.exit28
  %28 = getelementptr inbounds nuw i8, ptr %0, i64 320
  %29 = load ptr, ptr %28, align 8, !tbaa !227
  %30 = getelementptr inbounds nuw i8, ptr %29, i64 128
  %31 = load ptr, ptr %30, align 8, !tbaa !104
  br label %_ZN4Luau3getINS_9NeverTypeEEEPKT_PKNS_4TypeE.exit

_ZN4Luau3getINS_9NeverTypeEEEPKT_PKNS_4TypeE.exit: ; preds = %7, %_ZN4Luau6get_ifINS_16BooleanSingletonEJS1_NS_15StringSingletonEEEEPKT_PKNS_7VariantIJDpT0_EEE.exit.i, %8, %17, %_ZN4Luau6get_ifINS_16BooleanSingletonEJS1_NS_15StringSingletonEEEEPKT_PKNS_7VariantIJDpT0_EEE.exit.i26, %.thread47, %4, %27, %_ZN4Luau3getINS_16BooleanSingletonEEEPKT_PKNS_13SingletonTypeE.exit28
  %.0 = phi ptr [ %31, %27 ], [ %1, %_ZN4Luau3getINS_16BooleanSingletonEEEPKT_PKNS_13SingletonTypeE.exit28 ], [ %1, %4 ], [ %2, %8 ], [ %.mux, %_ZN4Luau6get_ifINS_16BooleanSingletonEJS1_NS_15StringSingletonEEEEPKT_PKNS_7VariantIJDpT0_EEE.exit.i ], [ %2, %.thread47 ], [ %1, %_ZN4Luau6get_ifINS_16BooleanSingletonEJS1_NS_15StringSingletonEEEEPKT_PKNS_7VariantIJDpT0_EEE.exit.i26 ], [ %1, %17 ], [ null, %7 ]
  ret ptr %.0
}